target datalayout = "e-m:e-p270:32:32-p271:32:32-p272:64:64-i64:64-i128:128-f80:128-n8:16:32:64-S128"
target triple = "x86_64-pc-linux-gnu"

@showprogress = internal global i8 0, align 1
@verbose = internal global i32 0, align 4
@progress_filename = internal global ptr null, align 8

; Function Attrs: nounwind uwtable
define internal void @progress_update_filename(ptr noundef %0) #0 {
  %2 = alloca ptr, align 8
  store ptr %0, ptr %2, align 8
  %3 = load i8, ptr @showprogress, align 1, !range !6, !noundef !7
  %4 = trunc i8 %3 to i1
  br i1 %4, label %5, label %17

5:                                                ; preds = %1
  %6 = load i32, ptr @verbose, align 4
  %7 = icmp ne i32 %6, 0
  br i1 %7, label %8, label %17

8:                                                ; preds = %5
  %9 = load ptr, ptr @progress_filename, align 8
  call void @free(ptr noundef %9) #12
  %10 = load ptr, ptr %2, align 8
  %11 = icmp ne ptr %10, null
  br i1 %11, label %12, label %15

12:                                               ; preds = %8
  %13 = load ptr, ptr %2, align 8
  %14 = call ptr @pg_strdup(ptr noundef %13)
  store ptr %14, ptr @progress_filename, align 8
  br label %16

15:                                               ; preds = %8
  store ptr null, ptr @progress_filename, align 8
  br label %16

16:                                               ; preds = %15, %12
  br label %17

17:                                               ; preds = %16, %5, %1
  ret void
}