; Function Attrs: nounwind uwtable
define internal void @progress_update_filename(ptr noundef %0) #0 {
  %.b3 = load i1, ptr @showprogress, align 1
  %2 = load i32, ptr @verbose, align 4
  %3 = icmp ne i32 %2, 0
  %or.cond = select i1 %.b3, i1 %3, i1 false
  br i1 %or.cond, label %4, label %8

4:                                                ; preds = %1
  %5 = load ptr, ptr @progress_filename, align 8
  tail call void @free(ptr noundef %5) #17
  %.not = icmp eq ptr %0, null
  br i1 %.not, label %.sink.split, label %6

6:                                                ; preds = %4
  %7 = tail call ptr @pg_strdup(ptr noundef nonnull %0) #17
  br label %.sink.split

.sink.split:                                      ; preds = %4, %6
  %.sink = phi ptr [ %7, %6 ], [ null, %4 ]
  store ptr %.sink, ptr @progress_filename, align 8
  br label %8

8:                                                ; preds = %.sink.split, %1
  ret void
}